target datalayout = "e-m:e-p270:32:32-p271:32:32-p272:64:64-i64:64-i128:128-f80:128-n8:16:32:64-S128"
target triple = "x86_64-pc-linux-gnu"

%struct._object = type { %union.anon, ptr }
%union.anon = type { i64 }
%struct._ts = type { ptr, ptr, ptr, i64, %struct.anon.805, i32, i32, i32, i32, i32, i32, i32, i32, ptr, ptr, ptr, ptr, ptr, ptr, ptr, ptr, i32, ptr, i64, i64, ptr, i64, i32, ptr, ptr, ptr, i64, i64, ptr, ptr, ptr, %struct._err_stackitem, ptr, i64, ptr, ptr }
%struct.anon.805 = type { i32 }
%struct._err_stackitem = type { ptr, ptr }

@_Py_NoneStruct = external global %struct._object, align 8
@PyExc_RuntimeError = external global ptr, align 8
@_Py_tss_tstate = external thread_local global ptr, align 8
@.str.39 = private unnamed_addr constant [39 x i8] c"unable to get the current thread state\00", align 1
@faulthandler_dump_traceback_py.kwlist = internal global [3 x ptr] [ptr @.str.31, ptr @.str.32, ptr null], align 16
@.str.51 = private unnamed_addr constant [19 x i8] c"|Op:dump_traceback\00", align 1

; Function Attrs: inlinehint nounwind uwtable
define internal ptr @_PyThreadState_GET() #5 {
  %1 = call align 8 ptr @llvm.threadlocal.address.p0(ptr align 8 @_Py_tss_tstate)
  %2 = load ptr, ptr %1, align 8, !tbaa !205
  ret ptr %2
}

; Function Attrs: inlinehint nounwind uwtable
define internal ptr @_PyInterpreterState_GET() #5 {
  %1 = alloca ptr, align 8
  call void @llvm.lifetime.start.p0(i64 8, ptr %1) #14
  %2 = call ptr @_PyThreadState_GET()
  store ptr %2, ptr %1, align 8, !tbaa !205
  %3 = load ptr, ptr %1, align 8, !tbaa !205
  %4 = getelementptr inbounds nuw %struct._ts, ptr %3, i32 0, i32 2
  %5 = load ptr, ptr %4, align 8, !tbaa !238
  call void @llvm.lifetime.end.p0(i64 8, ptr %1) #14
  ret ptr %5
}

; Function Attrs: nounwind uwtable
define internal ptr @get_thread_state() #0 {
  %1 = alloca ptr, align 8
  %2 = alloca ptr, align 8
  %3 = alloca i32, align 4
  call void @llvm.lifetime.start.p0(i64 8, ptr %2) #14
  %4 = call ptr @_PyThreadState_GET()
  store ptr %4, ptr %2, align 8, !tbaa !205
  %5 = load ptr, ptr %2, align 8, !tbaa !205
  %6 = icmp eq ptr %5, null
  br i1 %6, label %7, label %9

7:                                                ; preds = %0
  %8 = load ptr, ptr @PyExc_RuntimeError, align 8, !tbaa !183
  call void @PyErr_SetString(ptr noundef %8, ptr noundef @.str.39)
  store ptr null, ptr %1, align 8
  store i32 1, ptr %3, align 4
  br label %11

9:                                                ; preds = %0
  %10 = load ptr, ptr %2, align 8, !tbaa !205
  store ptr %10, ptr %1, align 8
  store i32 1, ptr %3, align 4
  br label %11

11:                                               ; preds = %9, %7
  call void @llvm.lifetime.end.p0(i64 8, ptr %2) #14
  %12 = load ptr, ptr %1, align 8
  ret ptr %12
}

; Function Attrs: nounwind uwtable
define internal ptr @faulthandler_dump_traceback_py(ptr noundef %0, ptr noundef %1, ptr noundef %2) #0 {
  %4 = alloca ptr, align 8
  %5 = alloca ptr, align 8
  %6 = alloca ptr, align 8
  %7 = alloca ptr, align 8
  %8 = alloca ptr, align 8
  %9 = alloca i32, align 4
  %10 = alloca ptr, align 8
  %11 = alloca ptr, align 8
  %12 = alloca i32, align 4
  %13 = alloca i32, align 4
  %14 = alloca ptr, align 8
  store ptr %0, ptr %5, align 8, !tbaa !183
  store ptr %1, ptr %6, align 8, !tbaa !183
  store ptr %2, ptr %7, align 8, !tbaa !183
  call void @llvm.lifetime.start.p0(i64 8, ptr %8) #14
  store ptr null, ptr %8, align 8, !tbaa !183
  call void @llvm.lifetime.start.p0(i64 4, ptr %9) #14
  store i32 1, ptr %9, align 4, !tbaa !4
  call void @llvm.lifetime.start.p0(i64 8, ptr %10) #14
  call void @llvm.lifetime.start.p0(i64 8, ptr %11) #14
  call void @llvm.lifetime.start.p0(i64 4, ptr %12) #14
  %15 = load ptr, ptr %6, align 8, !tbaa !183
  %16 = load ptr, ptr %7, align 8, !tbaa !183
  %17 = call i32 (ptr, ptr, ptr, ptr, ...) @PyArg_ParseTupleAndKeywords(ptr noundef %15, ptr noundef %16, ptr noundef @.str.51, ptr noundef @faulthandler_dump_traceback_py.kwlist, ptr noundef %8, ptr noundef %9)
  %18 = icmp ne i32 %17, 0
  br i1 %18, label %20, label %19

19:                                               ; preds = %3
  store ptr null, ptr %4, align 8
  store i32 1, ptr %13, align 4
  br label %57

20:                                               ; preds = %3
  %21 = call i32 @faulthandler_get_fileno(ptr noundef %8)
  store i32 %21, ptr %12, align 4, !tbaa !4
  %22 = load i32, ptr %12, align 4, !tbaa !4
  %23 = icmp slt i32 %22, 0
  br i1 %23, label %24, label %25

24:                                               ; preds = %20
  store ptr null, ptr %4, align 8
  store i32 1, ptr %13, align 4
  br label %57

25:                                               ; preds = %20
  %26 = call ptr @get_thread_state()
  store ptr %26, ptr %10, align 8, !tbaa !205
  %27 = load ptr, ptr %10, align 8, !tbaa !205
  %28 = icmp eq ptr %27, null
  br i1 %28, label %29, label %30

29:                                               ; preds = %25
  store ptr null, ptr %4, align 8
  store i32 1, ptr %13, align 4
  br label %57

30:                                               ; preds = %25
  %31 = load i32, ptr %9, align 4, !tbaa !4
  %32 = icmp ne i32 %31, 0
  br i1 %32, label %33, label %49

33:                                               ; preds = %30
  call void @llvm.lifetime.start.p0(i64 8, ptr %14) #14
  %34 = call ptr @_PyInterpreterState_GET()
  store ptr %34, ptr %14, align 8, !tbaa !209
  %35 = load ptr, ptr %14, align 8, !tbaa !209
  call void @_PyEval_StopTheWorld(ptr noundef %35)
  %36 = load i32, ptr %12, align 4, !tbaa !4
  %37 = load ptr, ptr %10, align 8, !tbaa !205
  %38 = call ptr @_Py_DumpTracebackThreads(i32 noundef %36, ptr noundef null, ptr noundef %37)
  store ptr %38, ptr %11, align 8, !tbaa !210
  %39 = load ptr, ptr %14, align 8, !tbaa !209
  call void @_PyEval_StartTheWorld(ptr noundef %39)
  %40 = load ptr, ptr %11, align 8, !tbaa !210
  %41 = icmp ne ptr %40, null
  br i1 %41, label %42, label %45

42:                                               ; preds = %33
  %43 = load ptr, ptr @PyExc_RuntimeError, align 8, !tbaa !183
  %44 = load ptr, ptr %11, align 8, !tbaa !210
  call void @PyErr_SetString(ptr noundef %43, ptr noundef %44)
  store ptr null, ptr %4, align 8
  store i32 1, ptr %13, align 4
  br label %46

45:                                               ; preds = %33
  store i32 0, ptr %13, align 4
  br label %46

46:                                               ; preds = %45, %42
  call void @llvm.lifetime.end.p0(i64 8, ptr %14) #14
  %47 = load i32, ptr %13, align 4
  switch i32 %47, label %57 [
    i32 0, label %48
  ]

48:                                               ; preds = %46
  br label %52

49:                                               ; preds = %30
  %50 = load i32, ptr %12, align 4, !tbaa !4
  %51 = load ptr, ptr %10, align 8, !tbaa !205
  call void @_Py_DumpTraceback(i32 noundef %50, ptr noundef %51)
  br label %52

52:                                               ; preds = %49, %48
  %53 = call i32 @PyErr_CheckSignals()
  %54 = icmp ne i32 %53, 0
  br i1 %54, label %55, label %56

55:                                               ; preds = %52
  store ptr null, ptr %4, align 8
  store i32 1, ptr %13, align 4
  br label %57

56:                                               ; preds = %52
  store ptr @_Py_NoneStruct, ptr %4, align 8
  store i32 1, ptr %13, align 4
  br label %57

57:                                               ; preds = %56, %55, %46, %29, %24, %19
  call void @llvm.lifetime.end.p0(i64 4, ptr %12) #14
  call void @llvm.lifetime.end.p0(i64 8, ptr %11) #14
  call void @llvm.lifetime.end.p0(i64 8, ptr %10) #14
  call void @llvm.lifetime.end.p0(i64 4, ptr %9) #14
  call void @llvm.lifetime.end.p0(i64 8, ptr %8) #14
  %58 = load ptr, ptr %4, align 8
  ret ptr %58
}