; Function Attrs: nounwind uwtable
define internal ptr @faulthandler_dump_traceback_py(ptr readnone captures(none) %0, ptr noundef %1, ptr noundef %2) #0 {
  %4 = alloca ptr, align 8
  %5 = alloca i32, align 4
  call void @llvm.lifetime.start.p0(i64 8, ptr nonnull %4) #16
  store ptr null, ptr %4, align 8, !tbaa !187
  call void @llvm.lifetime.start.p0(i64 4, ptr nonnull %5) #16
  store i32 1, ptr %5, align 4, !tbaa !202
  %6 = call i32 (ptr, ptr, ptr, ptr, ...) @PyArg_ParseTupleAndKeywords(ptr noundef %1, ptr noundef %2, ptr noundef nonnull @.str.51, ptr noundef nonnull @faulthandler_dump_traceback_py.kwlist, ptr noundef nonnull %4, ptr noundef nonnull %5) #16
  %.not = icmp eq i32 %6, 0
  br i1 %.not, label %24, label %7

7:                                                ; preds = %3
  %8 = call fastcc i32 @faulthandler_get_fileno(ptr noundef %4)
  %9 = icmp slt i32 %8, 0
  br i1 %9, label %24, label %10

10:                                               ; preds = %7
  %11 = call align 8 ptr @llvm.threadlocal.address.p0(ptr align 8 @_Py_tss_tstate)
  %12 = load ptr, ptr %11, align 8, !tbaa !203
  %13 = icmp eq ptr %12, null
  br i1 %13, label %get_thread_state.exit.thread, label %get_thread_state.exit

get_thread_state.exit.thread:                     ; preds = %10
  %14 = load ptr, ptr @PyExc_RuntimeError, align 8, !tbaa !187
  call void @PyErr_SetString(ptr noundef %14, ptr noundef nonnull @.str.39) #16
  br label %24

get_thread_state.exit:                            ; preds = %10
  %15 = load i32, ptr %5, align 4, !tbaa !202
  %.not17 = icmp eq i32 %15, 0
  br i1 %.not17, label %22, label %16

16:                                               ; preds = %get_thread_state.exit
  %17 = getelementptr inbounds nuw i8, ptr %12, i64 16
  %18 = load ptr, ptr %17, align 8, !tbaa !209
  call void @_PyEval_StopTheWorld(ptr noundef %18) #16
  %19 = call ptr @_Py_DumpTracebackThreads(i32 noundef %8, ptr noundef null, ptr noundef nonnull %12) #16
  call void @_PyEval_StartTheWorld(ptr noundef %18) #16
  %.not18 = icmp eq ptr %19, null
  br i1 %.not18, label %.critedge, label %20

20:                                               ; preds = %16
  %21 = load ptr, ptr @PyExc_RuntimeError, align 8, !tbaa !187
  call void @PyErr_SetString(ptr noundef %21, ptr noundef nonnull %19) #16
  br label %24

22:                                               ; preds = %get_thread_state.exit
  call void @_Py_DumpTraceback(i32 noundef %8, ptr noundef nonnull %12) #16
  br label %.critedge

.critedge:                                        ; preds = %16, %22
  %23 = call i32 @PyErr_CheckSignals() #16
  %.not19 = icmp eq i32 %23, 0
  %_Py_NoneStruct. = select i1 %.not19, ptr @_Py_NoneStruct, ptr null
  br label %24

24:                                               ; preds = %get_thread_state.exit.thread, %20, %.critedge, %7, %3
  %.0 = phi ptr [ null, %20 ], [ null, %3 ], [ null, %7 ], [ %_Py_NoneStruct., %.critedge ], [ null, %get_thread_state.exit.thread ]
  call void @llvm.lifetime.end.p0(i64 4, ptr nonnull %5) #16
  call void @llvm.lifetime.end.p0(i64 8, ptr nonnull %4) #16
  ret ptr %.0
}